; Function Attrs: mustprogress uwtable
define internal void @_ZNK5faiss12_GLOBAL__N_118IVFBinaryScannerL2INS_16HammingComputer8EE16scan_codes_rangeEmPKhPKliRNS_16RangeQueryResultE(ptr nocapture noundef nonnull readonly align 8 dereferenceable(40) %0, i64 noundef %1, ptr noalias nocapture noundef readonly %2, ptr noalias nocapture noundef readonly %3, i32 noundef %4, ptr noundef nonnull align 8 dereferenceable(24) %5) unnamed_addr #1 align 2 {
  %.not18 = icmp eq i64 %1, 0
  br i1 %.not18, label %._crit_edge, label %.lr.ph

.lr.ph:                                           ; preds = %6
  %7 = getelementptr inbounds i8, ptr %0, i64 8
  %8 = getelementptr inbounds i8, ptr %0, i64 24
  %9 = getelementptr inbounds i8, ptr %0, i64 32
  %10 = getelementptr inbounds i8, ptr %0, i64 16
  br label %11

11:                                               ; preds = %.lr.ph, %31
  %.017 = phi ptr [ %2, %.lr.ph ], [ %33, %31 ]
  %.01315 = phi i64 [ 0, %.lr.ph ], [ %34, %31 ]
  %12 = load i64, ptr %.017, align 8
  %13 = load i64, ptr %7, align 8
  %14 = xor i64 %13, %12
  %15 = tail call i64 @llvm.ctpop.i64(i64 %14), !range !210
  %16 = trunc i64 %15 to i32
  %17 = icmp ult i32 %16, %4
  br i1 %17, label %18, label %31

18:                                               ; preds = %11
  %19 = load i8, ptr %8, align 8
  %20 = and i8 %19, 1
  %.not = icmp eq i8 %20, 0
  br i1 %.not, label %25, label %21

21:                                               ; preds = %18
  %22 = load i64, ptr %9, align 8
  %23 = shl i64 %22, 32
  %24 = or i64 %23, %.01315
  br label %28

25:                                               ; preds = %18
  %26 = getelementptr inbounds i64, ptr %3, i64 %.01315
  %27 = load i64, ptr %26, align 8
  br label %28

28:                                               ; preds = %25, %21
  %29 = phi i64 [ %24, %21 ], [ %27, %25 ]
  %30 = uitofp i32 %16 to float
  tail call void @_ZN5faiss16RangeQueryResult3addEfl(ptr noundef nonnull align 8 dereferenceable(24) %5, float noundef %30, i64 noundef %29)
  br label %31

31:                                               ; preds = %28, %11
  %32 = load i64, ptr %10, align 8
  %33 = getelementptr inbounds i8, ptr %.017, i64 %32
  %34 = add nuw i64 %.01315, 1
  %exitcond.not = icmp eq i64 %34, %1
  br i1 %exitcond.not, label %._crit_edge, label %11, !llvm.loop !212

._crit_edge:                                      ; preds = %31, %6
  ret void
}